; ModuleID = '56/2214.c'
source_filename = "56/2214.c"
target datalayout = "e-m:e-p270:32:32-p271:32:32-p272:64:64-i64:64-f80:128-n8:16:32:64-S128"
target triple = "x86_64-pc-linux-gnu"

; Function Attrs: noinline nounwind uwtable
define dso_local i32 @main() #0 {
  %1 = alloca i32, align 4
  %2 = alloca i32, align 4
  %3 = alloca i32, align 4
  %4 = alloca [5 x i32], align 16
  %5 = alloca i32, align 4
  store i32 0, i32* %1, align 4
  store i32 0, i32* %3, align 4
  br label %6

6:                                                ; preds = %12, %0
  %7 = call i32 @getchar()
  %8 = load i32, i32* %3, align 4
  %9 = sext i32 %8 to i64
  %10 = getelementptr inbounds [5 x i32], [5 x i32]* %4, i64 0, i64 %9
  store i32 %7, i32* %10, align 4
  %11 = icmp ne i32 %7, 10
  br i1 %11, label %12, label %15

12:                                               ; preds = %6
  %13 = load i32, i32* %3, align 4
  %14 = add nsw i32 %13, 1
  store i32 %14, i32* %3, align 4
  br label %6

15:                                               ; preds = %6
  store i32 4, i32* %2, align 4
  br label %16

16:                                               ; preds = %38, %15
  %17 = load i32, i32* %2, align 4
  %18 = icmp sge i32 %17, 0
  br i1 %18, label %19, label %41

19:                                               ; preds = %16
  %20 = load i32, i32* %2, align 4
  %21 = sext i32 %20 to i64
  %22 = getelementptr inbounds [5 x i32], [5 x i32]* %4, i64 0, i64 %21
  %23 = load i32, i32* %22, align 4
  %24 = icmp sge i32 %23, 0
  br i1 %24, label %25, label %37

25:                                               ; preds = %19
  %26 = load i32, i32* %2, align 4
  %27 = sext i32 %26 to i64
  %28 = getelementptr inbounds [5 x i32], [5 x i32]* %4, i64 0, i64 %27
  %29 = load i32, i32* %28, align 4
  %30 = icmp sle i32 %29, 500
  br i1 %30, label %31, label %37

31:                                               ; preds = %25
  %32 = load i32, i32* %2, align 4
  %33 = sext i32 %32 to i64
  %34 = getelementptr inbounds [5 x i32], [5 x i32]* %4, i64 0, i64 %33
  %35 = load i32, i32* %34, align 4
  %36 = call i32 @putchar(i32 %35)
  br label %37

37:                                               ; preds = %31, %25, %19
  br label %38

38:                                               ; preds = %37
  %39 = load i32, i32* %2, align 4
  %40 = add nsw i32 %39, -1
  store i32 %40, i32* %2, align 4
  br label %16

41:                                               ; preds = %16
  %42 = load i32, i32* %1, align 4
  ret i32 %42
}

declare dso_local i32 @getchar() #1

declare dso_local i32 @putchar(i32) #1


!llvm.module.flags = !{!0}
!llvm.ident = !{!1}

!0 = !{i32 1, !"wchar_size", i32 4}
!1 = !{!"clang version 10.0.0-4ubuntu1 "}
